target datalayout = "e-m:e-p270:32:32-p271:32:32-p272:64:64-i64:64-i128:128-f80:128-n8:16:32:64-S128"
target triple = "x86_64-pc-linux-gnu"

; Function Attrs: nounwind uwtable
define ptr @Emb_ManMatrAlloc(i32 noundef %0) #0 {
  %2 = alloca i32, align 4
  %3 = alloca i32, align 4
  %4 = alloca ptr, align 8
  store i32 %0, ptr %2, align 4, !tbaa !12
  call void @llvm.lifetime.start.p0(i64 4, ptr %3) #12
  call void @llvm.lifetime.start.p0(i64 8, ptr %4) #12
  %5 = load i32, ptr %2, align 4, !tbaa !12
  %6 = sext i32 %5 to i64
  %7 = mul i64 8, %6
  %8 = load i32, ptr %2, align 4, !tbaa !12
  %9 = sext i32 %8 to i64
  %10 = mul i64 4, %9
  %11 = load i32, ptr %2, align 4, !tbaa !12
  %12 = sext i32 %11 to i64
  %13 = mul i64 %10, %12
  %14 = add i64 %7, %13
  %15 = mul i64 1, %14
  %16 = call noalias ptr @malloc(i64 noundef %15) #14
  store ptr %16, ptr %4, align 8, !tbaa !122
  %17 = load ptr, ptr %4, align 8, !tbaa !122
  %18 = load i32, ptr %2, align 4, !tbaa !12
  %19 = sext i32 %18 to i64
  %20 = getelementptr inbounds ptr, ptr %17, i64 %19
  %21 = load ptr, ptr %4, align 8, !tbaa !122
  %22 = getelementptr inbounds ptr, ptr %21, i64 0
  store ptr %20, ptr %22, align 8, !tbaa !107
  store i32 1, ptr %3, align 4, !tbaa !12
  br label %23

23:                                               ; preds = %41, %1
  %24 = load i32, ptr %3, align 4, !tbaa !12
  %25 = load i32, ptr %2, align 4, !tbaa !12
  %26 = icmp slt i32 %24, %25
  br i1 %26, label %27, label %44

27:                                               ; preds = %23
  %28 = load ptr, ptr %4, align 8, !tbaa !122
  %29 = load i32, ptr %3, align 4, !tbaa !12
  %30 = sub nsw i32 %29, 1
  %31 = sext i32 %30 to i64
  %32 = getelementptr inbounds ptr, ptr %28, i64 %31
  %33 = load ptr, ptr %32, align 8, !tbaa !107
  %34 = load i32, ptr %2, align 4, !tbaa !12
  %35 = sext i32 %34 to i64
  %36 = getelementptr inbounds float, ptr %33, i64 %35
  %37 = load ptr, ptr %4, align 8, !tbaa !122
  %38 = load i32, ptr %3, align 4, !tbaa !12
  %39 = sext i32 %38 to i64
  %40 = getelementptr inbounds ptr, ptr %37, i64 %39
  store ptr %36, ptr %40, align 8, !tbaa !107
  br label %41

41:                                               ; preds = %27
  %42 = load i32, ptr %3, align 4, !tbaa !12
  %43 = add nsw i32 %42, 1
  store i32 %43, ptr %3, align 4, !tbaa !12
  br label %23, !llvm.loop !123

44:                                               ; preds = %23
  %45 = load ptr, ptr %4, align 8, !tbaa !122
  call void @llvm.lifetime.end.p0(i64 8, ptr %4) #12
  call void @llvm.lifetime.end.p0(i64 4, ptr %3) #12
  ret ptr %45
}