; Function Attrs: nofree nounwind memory(readwrite, argmem: none) uwtable
define noundef ptr @Emb_ManMatrAlloc(i32 noundef %0) local_unnamed_addr #12 {
  %2 = sext i32 %0 to i64
  %3 = shl nsw i64 %2, 2
  %4 = add nsw i64 %3, 8
  %5 = mul i64 %4, %2
  %6 = tail call noalias ptr @malloc(i64 noundef %5) #29
  %7 = getelementptr inbounds ptr, ptr %6, i64 %2
  store ptr %7, ptr %6, align 8, !tbaa !117
  %8 = icmp sgt i32 %0, 1
  br i1 %8, label %.lr.ph.preheader, label %._crit_edge

.lr.ph.preheader:                                 ; preds = %1
  %wide.trip.count = zext nneg i32 %0 to i64
  %load_initial = load ptr, ptr %6, align 8
  br label %.lr.ph

.lr.ph:                                           ; preds = %.lr.ph.preheader, %.lr.ph
  %store_forwarded = phi ptr [ %load_initial, %.lr.ph.preheader ], [ %10, %.lr.ph ]
  %indvars.iv = phi i64 [ 1, %.lr.ph.preheader ], [ %indvars.iv.next, %.lr.ph ]
  %9 = getelementptr ptr, ptr %6, i64 %indvars.iv
  %10 = getelementptr inbounds nuw float, ptr %store_forwarded, i64 %2
  store ptr %10, ptr %9, align 8, !tbaa !117
  %indvars.iv.next = add nuw nsw i64 %indvars.iv, 1
  %exitcond.not = icmp eq i64 %indvars.iv.next, %wide.trip.count
  br i1 %exitcond.not, label %._crit_edge, label %.lr.ph, !llvm.loop !118

._crit_edge:                                      ; preds = %.lr.ph, %1
  ret ptr %6
}